; Function Attrs: mustprogress nofree norecurse nosync nounwind memory(read, argmem: readwrite, inaccessiblemem: none) uwtable
define internal noundef i64 @_ZNK5faiss12_GLOBAL__N_110IVFScannerINS_17HammingComputer20EE10scan_codesEmPKhPKlPfPlm(ptr nocapture noundef nonnull readonly align 8 dereferenceable(160) %0, i64 noundef %1, ptr nocapture noundef readonly %2, ptr nocapture noundef readonly %3, ptr nocapture noundef %4, ptr nocapture noundef %5, i64 noundef %6) unnamed_addr #17 align 2 {
  %.not24 = icmp eq i64 %1, 0
  br i1 %.not24, label %._crit_edge, label %.lr.ph

.lr.ph:                                           ; preds = %7
  %8 = getelementptr inbounds i8, ptr %0, i64 136
  %9 = getelementptr inbounds i8, ptr %0, i64 152
  %10 = getelementptr inbounds i8, ptr %0, i64 17
  %11 = getelementptr inbounds i8, ptr %0, i64 8
  %12 = getelementptr inbounds i8, ptr %4, i64 -4
  %13 = getelementptr inbounds i8, ptr %5, i64 -8
  %14 = icmp ult i64 %6, 2
  %.phi.trans.insert.i.i = getelementptr inbounds float, ptr %12, i64 %6
  %15 = getelementptr inbounds i8, ptr %0, i64 32
  br label %16

16:                                               ; preds = %.lr.ph, %83
  %.023 = phi ptr [ %2, %.lr.ph ], [ %85, %83 ]
  %.01722 = phi i64 [ 0, %.lr.ph ], [ %.1, %83 ]
  %.01820 = phi i64 [ 0, %.lr.ph ], [ %86, %83 ]
  %17 = load <2 x i64>, ptr %.023, align 8
  %18 = load <2 x i64>, ptr %8, align 8
  %19 = xor <2 x i64> %18, %17
  %20 = tail call <2 x i64> @llvm.ctpop.v2i64(<2 x i64> %19), !range !13
  %21 = trunc <2 x i64> %20 to <2 x i32>
  %shift = shufflevector <2 x i32> %21, <2 x i32> poison, <2 x i32> <i32 1, i32 poison>
  %22 = add nuw nsw <2 x i32> %shift, %21
  %23 = extractelement <2 x i32> %22, i64 0
  %24 = getelementptr inbounds i8, ptr %.023, i64 16
  %25 = load i32, ptr %24, align 4
  %26 = load i32, ptr %9, align 8
  %27 = xor i32 %26, %25
  %28 = tail call i32 @llvm.ctpop.i32(i32 %27), !range !25
  %29 = add nuw nsw i32 %23, %28
  %30 = sitofp i32 %29 to float
  %31 = load float, ptr %4, align 4
  %32 = fcmp ogt float %31, %30
  br i1 %32, label %33, label %83

33:                                               ; preds = %16
  %34 = load i8, ptr %10, align 1
  %35 = and i8 %34, 1
  %.not = icmp eq i8 %35, 0
  br i1 %.not, label %40, label %36

36:                                               ; preds = %33
  %37 = load i64, ptr %11, align 8
  %38 = shl i64 %37, 32
  %39 = or i64 %38, %.01820
  br label %43

40:                                               ; preds = %33
  %41 = getelementptr inbounds i64, ptr %3, i64 %.01820
  %42 = load i64, ptr %41, align 8
  br label %43

43:                                               ; preds = %40, %36
  %44 = phi i64 [ %39, %36 ], [ %42, %40 ]
  br i1 %14, label %_ZN5faiss19maxheap_replace_topIfEEvmPT_PlS1_l.exit, label %.lr.ph.i.i

.lr.ph.i.i:                                       ; preds = %43, %73
  %45 = phi i64 [ %78, %73 ], [ 3, %43 ]
  %46 = phi i64 [ %77, %73 ], [ 2, %43 ]
  %.056.i.i = phi i64 [ %.1.i.i, %73 ], [ 1, %43 ]
  %47 = icmp eq i64 %46, %6
  br i1 %47, label %.lr.ph._ZN5faiss4CMaxIflE4cmp2Effll.exit.thread_crit_edge.i.i, label %48

.lr.ph._ZN5faiss4CMaxIflE4cmp2Effll.exit.thread_crit_edge.i.i: ; preds = %.lr.ph.i.i
  %.pre.i.i = load float, ptr %.phi.trans.insert.i.i, align 4
  br label %_ZN5faiss4CMaxIflE4cmp2Effll.exit.thread.i.i

48:                                               ; preds = %.lr.ph.i.i
  %49 = getelementptr inbounds float, ptr %12, i64 %46
  %50 = load float, ptr %49, align 4
  %51 = getelementptr inbounds float, ptr %12, i64 %45
  %52 = load float, ptr %51, align 4
  %53 = getelementptr inbounds i64, ptr %13, i64 %45
  %54 = load i64, ptr %53, align 8
  %55 = fcmp ogt float %50, %52
  br i1 %55, label %_ZN5faiss4CMaxIflE4cmp2Effll.exit.thread.i.i, label %_ZN5faiss4CMaxIflE4cmp2Effll.exit.i.i

_ZN5faiss4CMaxIflE4cmp2Effll.exit.i.i:            ; preds = %48
  %56 = getelementptr inbounds i64, ptr %13, i64 %46
  %57 = load i64, ptr %56, align 8
  %58 = fcmp oeq float %50, %52
  %59 = icmp sgt i64 %57, %54
  %60 = and i1 %58, %59
  br i1 %60, label %_ZN5faiss4CMaxIflE4cmp2Effll.exit.thread.i.i, label %68

_ZN5faiss4CMaxIflE4cmp2Effll.exit.thread.i.i:     ; preds = %_ZN5faiss4CMaxIflE4cmp2Effll.exit.i.i, %48, %.lr.ph._ZN5faiss4CMaxIflE4cmp2Effll.exit.thread_crit_edge.i.i
  %61 = phi float [ %.pre.i.i, %.lr.ph._ZN5faiss4CMaxIflE4cmp2Effll.exit.thread_crit_edge.i.i ], [ %50, %48 ], [ %50, %_ZN5faiss4CMaxIflE4cmp2Effll.exit.i.i ]
  %62 = fcmp olt float %61, %30
  br i1 %62, label %_ZN5faiss19maxheap_replace_topIfEEvmPT_PlS1_l.exit, label %_ZN5faiss4CMaxIflE4cmp2Effll.exit54.i.i

_ZN5faiss4CMaxIflE4cmp2Effll.exit54.i.i:          ; preds = %_ZN5faiss4CMaxIflE4cmp2Effll.exit.thread.i.i
  %63 = getelementptr inbounds i64, ptr %13, i64 %46
  %64 = load i64, ptr %63, align 8
  %65 = fcmp oeq float %61, %30
  %66 = icmp slt i64 %64, %44
  %67 = and i1 %65, %66
  br i1 %67, label %_ZN5faiss19maxheap_replace_topIfEEvmPT_PlS1_l.exit, label %73

68:                                               ; preds = %_ZN5faiss4CMaxIflE4cmp2Effll.exit.i.i
  %69 = fcmp olt float %52, %30
  br i1 %69, label %_ZN5faiss19maxheap_replace_topIfEEvmPT_PlS1_l.exit, label %_ZN5faiss4CMaxIflE4cmp2Effll.exit55.i.i

_ZN5faiss4CMaxIflE4cmp2Effll.exit55.i.i:          ; preds = %68
  %70 = fcmp oeq float %52, %30
  %71 = icmp slt i64 %54, %44
  %72 = and i1 %70, %71
  br i1 %72, label %_ZN5faiss19maxheap_replace_topIfEEvmPT_PlS1_l.exit, label %73

73:                                               ; preds = %_ZN5faiss4CMaxIflE4cmp2Effll.exit55.i.i, %_ZN5faiss4CMaxIflE4cmp2Effll.exit54.i.i
  %.sink.i.i = phi float [ %61, %_ZN5faiss4CMaxIflE4cmp2Effll.exit54.i.i ], [ %52, %_ZN5faiss4CMaxIflE4cmp2Effll.exit55.i.i ]
  %.sink63.i.i = phi ptr [ %63, %_ZN5faiss4CMaxIflE4cmp2Effll.exit54.i.i ], [ %53, %_ZN5faiss4CMaxIflE4cmp2Effll.exit55.i.i ]
  %.1.i.i = phi i64 [ %46, %_ZN5faiss4CMaxIflE4cmp2Effll.exit54.i.i ], [ %45, %_ZN5faiss4CMaxIflE4cmp2Effll.exit55.i.i ]
  %74 = getelementptr inbounds float, ptr %12, i64 %.056.i.i
  store float %.sink.i.i, ptr %74, align 4
  %75 = load i64, ptr %.sink63.i.i, align 8
  %76 = getelementptr inbounds i64, ptr %13, i64 %.056.i.i
  store i64 %75, ptr %76, align 8
  %77 = shl i64 %.1.i.i, 1
  %78 = or disjoint i64 %77, 1
  %79 = icmp ugt i64 %77, %6
  br i1 %79, label %_ZN5faiss19maxheap_replace_topIfEEvmPT_PlS1_l.exit, label %.lr.ph.i.i, !llvm.loop !27

_ZN5faiss19maxheap_replace_topIfEEvmPT_PlS1_l.exit: ; preds = %_ZN5faiss4CMaxIflE4cmp2Effll.exit.thread.i.i, %_ZN5faiss4CMaxIflE4cmp2Effll.exit54.i.i, %68, %_ZN5faiss4CMaxIflE4cmp2Effll.exit55.i.i, %73, %43
  %.0.lcssa.i.i = phi i64 [ 1, %43 ], [ %.056.i.i, %68 ], [ %.056.i.i, %_ZN5faiss4CMaxIflE4cmp2Effll.exit.thread.i.i ], [ %.056.i.i, %_ZN5faiss4CMaxIflE4cmp2Effll.exit55.i.i ], [ %.056.i.i, %_ZN5faiss4CMaxIflE4cmp2Effll.exit54.i.i ], [ %.1.i.i, %73 ]
  %80 = getelementptr inbounds float, ptr %12, i64 %.0.lcssa.i.i
  store float %30, ptr %80, align 4
  %81 = getelementptr inbounds i64, ptr %13, i64 %.0.lcssa.i.i
  store i64 %44, ptr %81, align 8
  %82 = add i64 %.01722, 1
  br label %83

83:                                               ; preds = %_ZN5faiss19maxheap_replace_topIfEEvmPT_PlS1_l.exit, %16
  %.1 = phi i64 [ %82, %_ZN5faiss19maxheap_replace_topIfEEvmPT_PlS1_l.exit ], [ %.01722, %16 ]
  %84 = load i64, ptr %15, align 8
  %85 = getelementptr inbounds i8, ptr %.023, i64 %84
  %86 = add nuw i64 %.01820, 1
  %exitcond.not = icmp eq i64 %86, %1
  br i1 %exitcond.not, label %._crit_edge, label %16, !llvm.loop !33

._crit_edge:                                      ; preds = %83, %7
  %.017.lcssa = phi i64 [ 0, %7 ], [ %.1, %83 ]
  ret i64 %.017.lcssa
}